target datalayout = "e-m:e-p270:32:32-p271:32:32-p272:64:64-i64:64-i128:128-f80:128-n8:16:32:64-S128"
target triple = "x86_64-pc-linux-gnu"

%class.QString = type { %struct.QArrayDataPointer }
%struct.QArrayDataPointer = type { ptr, ptr, i64 }
%class.VoipCallsDialog = type { %class.WiresharkDialog.base, i8, ptr, ptr, ptr, ptr, ptr, %struct._voip_calls_tapinfo, ptr, ptr, ptr, ptr, ptr, i8, ptr }
%class.WiresharkDialog.base = type <{ %class.GeometryStateDialog, ptr, i8, [7 x i8], %class.QString, %class.QList, i32, i8 }>
%class.GeometryStateDialog = type { %class.QDialog, %class.QString }
%class.QDialog = type { %class.QWidget }
%class.QWidget = type { %class.QObject, %class.QPaintDevice.base, ptr }
%class.QObject = type { ptr, %class.QScopedPointer }
%class.QScopedPointer = type { ptr }
%class.QPaintDevice.base = type <{ ptr, i16 }>
%class.QList = type { %struct.QArrayDataPointer.0 }
%struct.QArrayDataPointer.0 = type { ptr, ptr, i64 }
%struct._voip_calls_tapinfo = type { ptr, ptr, ptr, ptr, i32, ptr, [1 x ptr], i32, ptr, i32, i32, i32, ptr, ptr, i32, ptr, i32, i8, i32, ptr, i32, i32, i32, i8, i32, ptr, ptr, ptr, i8, i32, i32, i32, i16, i32, i32, i32, i32, i32, i32, i32, i32, i32 }
%class.Ui_VoipCallsDialog = type { ptr, ptr, ptr, ptr, ptr, ptr, ptr, ptr, ptr, ptr, ptr, ptr, ptr, ptr, ptr, ptr, ptr }
%class.WiresharkDialog = type <{ %class.GeometryStateDialog, ptr, i8, [7 x i8], %class.QString, %class.QList, i32, i8, [3 x i8] }>
%struct._GList = type { ptr, ptr, ptr }

; Function Attrs: mustprogress uwtable
define void @_ZN15VoipCallsDialog14removeAllCallsEv(ptr noundef nonnull align 8 dereferenceable(480) %0) #0 align 2 {
  %2 = alloca ptr, align 8
  %3 = alloca ptr, align 8
  %4 = alloca ptr, align 8
  store ptr %0, ptr %2, align 8
  %5 = load ptr, ptr %2, align 8
  store ptr null, ptr %4, align 8
  %6 = getelementptr inbounds %class.VoipCallsDialog, ptr %5, i32 0, i32 3
  %7 = load ptr, ptr %6, align 8
  call void @_ZN18VoipCallsInfoModel14removeAllCallsEv(ptr noundef nonnull align 8 dereferenceable(41) %7)
  %8 = getelementptr inbounds %class.VoipCallsDialog, ptr %5, i32 0, i32 14
  %9 = load ptr, ptr %8, align 8
  %10 = call ptr @g_queue_peek_nth_link(ptr noundef %9, i32 noundef 0)
  store ptr %10, ptr %4, align 8
  br label %11

11:                                               ; preds = %26, %1
  %12 = load ptr, ptr %4, align 8
  %13 = icmp ne ptr %12, null
  br i1 %13, label %14, label %28

14:                                               ; preds = %11
  %15 = load ptr, ptr %4, align 8
  %16 = getelementptr inbounds %struct._GList, ptr %15, i32 0, i32 0
  %17 = load ptr, ptr %16, align 8
  store ptr %17, ptr %3, align 8
  %18 = load ptr, ptr %3, align 8
  call void @voip_calls_free_callsinfo(ptr noundef %18)
  %19 = load ptr, ptr %4, align 8
  %20 = icmp ne ptr %19, null
  br i1 %20, label %21, label %25

21:                                               ; preds = %14
  %22 = load ptr, ptr %4, align 8
  %23 = getelementptr inbounds %struct._GList, ptr %22, i32 0, i32 1
  %24 = load ptr, ptr %23, align 8
  br label %26

25:                                               ; preds = %14
  br label %26

26:                                               ; preds = %25, %21
  %27 = phi ptr [ %24, %21 ], [ null, %25 ]
  store ptr %27, ptr %4, align 8
  br label %11, !llvm.loop !20

28:                                               ; preds = %11
  %29 = getelementptr inbounds %class.VoipCallsDialog, ptr %5, i32 0, i32 14
  %30 = load ptr, ptr %29, align 8
  call void @g_queue_clear(ptr noundef %30)
  ret void
}

; Function Attrs: mustprogress uwtable
define void @_ZN15VoipCallsDialog20displayFilterSuccessEb(ptr noundef nonnull align 8 dereferenceable(480) %0, i1 noundef zeroext %1) #0 align 2 {
  %3 = alloca ptr, align 8
  %4 = alloca i8, align 1
  store ptr %0, ptr %3, align 8
  %5 = zext i1 %1 to i8
  store i8 %5, ptr %4, align 1
  %6 = load ptr, ptr %3, align 8
  %7 = load i8, ptr %4, align 1
  %8 = trunc i8 %7 to i1
  br i1 %8, label %9, label %18

9:                                                ; preds = %2
  %10 = getelementptr inbounds %class.VoipCallsDialog, ptr %6, i32 0, i32 2
  %11 = load ptr, ptr %10, align 8
  %12 = getelementptr inbounds %class.Ui_VoipCallsDialog, ptr %11, i32 0, i32 13
  %13 = load ptr, ptr %12, align 8
  %14 = call noundef zeroext i1 @_ZNK15QAbstractButton9isCheckedEv(ptr noundef nonnull align 8 dereferenceable(40) %13)
  br i1 %14, label %15, label %18

15:                                               ; preds = %9
  call void @_ZN15VoipCallsDialog14removeAllCallsEv(ptr noundef nonnull align 8 dereferenceable(480) %6)
  %16 = getelementptr inbounds %class.WiresharkDialog, ptr %6, i32 0, i32 1
  %17 = load ptr, ptr %16, align 8
  call void @_ZN11CaptureFile12retapPacketsEv(ptr noundef nonnull align 8 dereferenceable(48) %17)
  br label %18

18:                                               ; preds = %15, %9, %2
  ret void
}