; Function Attrs: mustprogress uwtable
define void @_ZN15VoipCallsDialog20displayFilterSuccessEb(ptr nocapture noundef nonnull readonly align 8 dereferenceable(480) %0, i1 noundef zeroext %1) local_unnamed_addr #0 align 2 {
  br i1 %1, label %3, label %21

3:                                                ; preds = %2
  %4 = getelementptr inbounds i8, ptr %0, i64 136
  %5 = load ptr, ptr %4, align 8
  %6 = getelementptr inbounds i8, ptr %5, i64 104
  %7 = load ptr, ptr %6, align 8
  %8 = tail call noundef zeroext i1 @_ZNK15QAbstractButton9isCheckedEv(ptr noundef nonnull align 8 dereferenceable(40) %7)
  br i1 %8, label %9, label %21

9:                                                ; preds = %3
  %10 = getelementptr inbounds i8, ptr %0, i64 144
  %11 = load ptr, ptr %10, align 8
  tail call void @_ZN18VoipCallsInfoModel14removeAllCallsEv(ptr noundef nonnull align 8 dereferenceable(41) %11)
  %12 = getelementptr inbounds i8, ptr %0, i64 472
  %13 = load ptr, ptr %12, align 8
  %14 = tail call ptr @g_queue_peek_nth_link(ptr noundef %13, i32 noundef 0)
  %.not6.i = icmp eq ptr %14, null
  br i1 %.not6.i, label %_ZN15VoipCallsDialog14removeAllCallsEv.exit, label %.lr.ph.i

.lr.ph.i:                                         ; preds = %9, %.lr.ph.i
  %.07.i = phi ptr [ %17, %.lr.ph.i ], [ %14, %9 ]
  %15 = load ptr, ptr %.07.i, align 8
  tail call void @voip_calls_free_callsinfo(ptr noundef %15)
  %16 = getelementptr inbounds i8, ptr %.07.i, i64 8
  %17 = load ptr, ptr %16, align 8
  %.not.i = icmp eq ptr %17, null
  br i1 %.not.i, label %_ZN15VoipCallsDialog14removeAllCallsEv.exit, label %.lr.ph.i, !llvm.loop !19

_ZN15VoipCallsDialog14removeAllCallsEv.exit:      ; preds = %.lr.ph.i, %9
  %18 = load ptr, ptr %12, align 8
  tail call void @g_queue_clear(ptr noundef %18)
  %19 = getelementptr inbounds i8, ptr %0, i64 64
  %20 = load ptr, ptr %19, align 8
  tail call void @_ZN11CaptureFile12retapPacketsEv(ptr noundef nonnull align 8 dereferenceable(48) %20)
  br label %21

21:                                               ; preds = %_ZN15VoipCallsDialog14removeAllCallsEv.exit, %3, %2
  ret void
}